Certificate:
    Data:
        Version: 3 (0x2)
        Serial Number: 7 (0x7)
        Signature Algorithm: sha1WithRSAEncryption
        Issuer: CN=Acme Sample CA, ST=Rhode Island, C=US/emailAddress=contact@acme.com, O=Acme Inc., OU=Device Security
        Validity
            Not Before: Apr 21 03:17:05 2004 GMT
            Not After : Apr 21 03:17:05 2005 GMT
        Subject: CN=Sample Acme Cert, ST=Rhode Island, C=US/emailAddress=support@acme.com, O=Acme Inc., OU=Device Security
        Subject Public Key Info:
            Public Key Algorithm: rsaEncryption
            RSA Public Key: (1024 bit)
                Modulus (1024 bit):
                    00:c7:e3:9f:ba:06:69:4f:7f:58:ea:6d:14:0f:84:
                    f6:21:e6:44:17:ee:b6:35:84:19:13:98:91:0e:15:
                    54:5d:62:93:d5:dd:52:1f:e0:36:7d:71:52:96:18:
                    3a:e8:dd:8f:5f:8b:4b:67:a2:70:33:9d:06:8c:5a:
                    10:0e:a8:42:1a:8a:2e:8f:32:44:d8:fe:a8:0a:6e:
                    9e:9f:88:d6:7f:3a:57:12:e6:73:96:f3:db:f4:bc:
                    0a:39:35:a2:fd:3a:6b:9c:e4:58:f3:e0:68:76:31:
                    43:42:71:b3:7e:de:1f:c7:8d:ad:27:9e:a2:4b:00:
                    25:e3:13:bc:8d:e6:03:20:5d
                Exponent: 65537 (0x10001)
        X509v3 extensions:
            X509v3 Subject Alternative Name: 
                URI:what, DNS:www.acme.com, email:support@acme.com
            X509v3 Basic Constraints: 
                CA:FALSE
    Signature Algorithm: sha1WithRSAEncryption
        66:19:07:df:d0:86:1f:f2:15:99:f5:2c:06:d1:f2:51:91:5e:
        61:1e:ff:ac:3c:7f:94:f4:2c:fe:5a:70:75:6d:e3:dd:42:dd:
        d2:00:87:cf:d0:38:f5:84:49:cb:01:20:73:55:e0:18:b5:9a:
        e7:f1:96:0a:97:12:b0:68:30:8f:fd:9a:fe:43:4d:5f:27:ed:
        e0:3d:91:c0:e0:d1:b5:08:32:1c:ef:03:54:fc:20:6a:26:bb:
        a5:50:0f:52:50:ee:77:15:52:23:78:97:2e:43:34:ac:71:cc:
        97:3f:78:5e:06:7a:ac:26:fa:f6:32:11:a6:bc:01:cc:b6:4d:
        47:21
-----BEGIN CERTIFICATE-----
MIIC0DCCAjmgAwIBAgIBBzANBgkqhkiG9w0BAQUFADCBjDEXMBUGA1UEAxMOQWNt
ZSBTYW1wbGUgQ0ExFTATBgNVBAgTDFJob2RlIElzbGFuZDELMAkGA1UEBhMCVVMx
HzAdBgkqhkiG9w0BCQEWEGNvbnRhY3RAYWNtZS5jb20xEjAQBgNVBAoTCUFjbWUg
SW5jLjEYMBYGA1UECxMPRGV2aWNlIFNlY3VyaXR5MB4XDTA0MDQyMTAzMTcwNVoX
DTA1MDQyMTAzMTcwNVowgY4xGTAXBgNVBAMTEFNhbXBsZSBBY21lIENlcnQxFTAT
BgNVBAgTDFJob2RlIElzbGFuZDELMAkGA1UEBhMCVVMxHzAdBgkqhkiG9w0BCQEW
EHN1cHBvcnRAYWNtZS5jb20xEjAQBgNVBAoTCUFjbWUgSW5jLjEYMBYGA1UECxMP
RGV2aWNlIFNlY3VyaXR5MIGfMA0GCSqGSIb3DQEBAQUAA4GNADCBiQKBgQDH45+6
BmlPf1jqbRQPhPYh5kQX7rY1hBkTmJEOFVRdYpPV3VIf4DZ9cVKWGDro3Y9fi0tn
onAznQaMWhAOqEIaii6PMkTY/qgKbp6fiNZ/OlcS5nOW89v0vAo5NaL9Omuc5Fjz
4Gh2MUNCcbN+3h/Hja0nnqJLACXjE7yN5gMgXQIDAQABoz4wPDAvBgNVHREEKDAm
hgR3aGF0ggx3d3cuYWNtZS5jb22BEHN1cHBvcnRAYWNtZS5jb20wCQYDVR0TBAIw
ADANBgkqhkiG9w0BAQUFAAOBgQBmGQff0IYf8hWZ9SwG0fJRkV5hHv+sPH+U9Cz+
WnB1bePdQt3SAIfP0Dj1hEnLASBzVeAYtZrn8ZYKlxKwaDCP/Zr+Q01fJ+3gPZHA
4NG1CDIc7wNU/CBqJrulUA9SUO53FVIjeJcuQzSsccyXP3heBnqsJvr2MhGmvAHM
tk1HIQ==
-----END CERTIFICATE-----
